target datalayout = "e-m:e-p270:32:32-p271:32:32-p272:64:64-i64:64-i128:128-f80:128-n8:16:32:64-S128"
target triple = "x86_64-pc-linux-gnu"

; Function Attrs: nounwind uwtable
define internal i32 @test_session_wo_ca_names() #0 {
  %1 = alloca i32, align 4
  %2 = call i32 @execute_test_session(i32 noundef 772, i32 noundef 1, i32 noundef 0, i64 noundef 512)
  %3 = icmp ne i32 %2, 0
  br i1 %3, label %5, label %4

4:                                                ; preds = %0
  store i32 0, ptr %1, align 4
  br label %7

5:                                                ; preds = %0
  %6 = call i32 @execute_test_session(i32 noundef 771, i32 noundef 1, i32 noundef 0, i64 noundef 512)
  store i32 %6, ptr %1, align 4
  br label %7

7:                                                ; preds = %5, %4
  %8 = load i32, ptr %1, align 4
  ret i32 %8
}