; Function Attrs: nounwind uwtable
define internal range(i32 0, 2) i32 @test_session_wo_ca_names() #1 {
  %1 = tail call fastcc i32 @execute_test_session(i32 noundef 772, i32 noundef 1, i32 noundef 0, i64 noundef 512)
  %.not = icmp eq i32 %1, 0
  br i1 %.not, label %4, label %2

2:                                                ; preds = %0
  %3 = tail call fastcc i32 @execute_test_session(i32 noundef 771, i32 noundef 1, i32 noundef 0, i64 noundef 512)
  br label %4

4:                                                ; preds = %0, %2
  %.0 = phi i32 [ %3, %2 ], [ 0, %0 ]
  ret i32 %.0
}